target datalayout = "e-m:e-p270:32:32-p271:32:32-p272:64:64-i64:64-i128:128-f80:128-n8:16:32:64-S128"
target triple = "x86_64-pc-linux-gnu"

%struct.DdManager = type { %struct.DdNode, ptr, ptr, ptr, ptr, ptr, ptr, ptr, i32, i32, double, double, double, i32, i32, i32, i32, i32, i32, ptr, ptr, %struct.DdSubtable, i32, i32, i32, i32, i32, i32, i32, double, i32, i32, i32, ptr, i64, double, i32, ptr, ptr, ptr, ptr, ptr, ptr, ptr, i32, ptr, ptr, ptr, ptr, ptr, ptr, i32, i32, i32, double, i32, i32, i32, i32, double, double, i32, i32, i32, i32, i32, i32, i32, i32, i32, ptr, ptr, i32, i32, i32, i32, i32, i32, ptr, ptr, ptr, ptr, ptr, ptr, ptr, ptr, i32, i64, i64, i64, i32, i64, i64, double, double, double, double, double, double, i32, ptr, ptr, i64 }
%struct.DdNode = type { i32, i32, ptr, %union.anon, i64 }
%union.anon = type { %struct.DdChildren }
%struct.DdChildren = type { ptr, ptr }
%struct.DdSubtable = type { ptr, i32, i32, i32, i32, i32, i32, i32, i32, i32, i32, i32 }
%struct.Move = type { i32, i32, i32, i32, ptr }

; Function Attrs: nounwind uwtable
define internal ptr @cuddZddUndoMoves(ptr noundef %0, ptr noundef %1) #0 {
  %3 = alloca ptr, align 8
  %4 = alloca ptr, align 8
  %5 = alloca ptr, align 8
  %6 = alloca ptr, align 8
  %7 = alloca ptr, align 8
  %8 = alloca ptr, align 8
  %9 = alloca i32, align 4
  %10 = alloca i32, align 4
  store ptr %0, ptr %4, align 8, !tbaa !3
  store ptr %1, ptr %5, align 8, !tbaa !40
  call void @llvm.lifetime.start.p0(i64 8, ptr %6) #5
  store ptr null, ptr %6, align 8, !tbaa !40
  call void @llvm.lifetime.start.p0(i64 8, ptr %7) #5
  call void @llvm.lifetime.start.p0(i64 8, ptr %8) #5
  call void @llvm.lifetime.start.p0(i64 4, ptr %9) #5
  %11 = load ptr, ptr %5, align 8, !tbaa !40
  store ptr %11, ptr %7, align 8, !tbaa !40
  br label %12

12:                                               ; preds = %119, %2
  %13 = load ptr, ptr %7, align 8, !tbaa !40
  %14 = icmp ne ptr %13, null
  br i1 %14, label %15, label %123

15:                                               ; preds = %12
  %16 = load ptr, ptr %4, align 8, !tbaa !3
  %17 = call ptr @cuddDynamicAllocNode(ptr noundef %16)
  store ptr %17, ptr %8, align 8, !tbaa !40
  %18 = load ptr, ptr %8, align 8, !tbaa !40
  %19 = icmp eq ptr %18, null
  br i1 %19, label %20, label %21

20:                                               ; preds = %15
  br label %125

21:                                               ; preds = %15
  %22 = load ptr, ptr %7, align 8, !tbaa !40
  %23 = getelementptr inbounds nuw %struct.Move, ptr %22, i32 0, i32 0
  %24 = load i32, ptr %23, align 8, !tbaa !51
  %25 = load ptr, ptr %8, align 8, !tbaa !40
  %26 = getelementptr inbounds nuw %struct.Move, ptr %25, i32 0, i32 0
  store i32 %24, ptr %26, align 8, !tbaa !51
  %27 = load ptr, ptr %7, align 8, !tbaa !40
  %28 = getelementptr inbounds nuw %struct.Move, ptr %27, i32 0, i32 1
  %29 = load i32, ptr %28, align 4, !tbaa !52
  %30 = load ptr, ptr %8, align 8, !tbaa !40
  %31 = getelementptr inbounds nuw %struct.Move, ptr %30, i32 0, i32 1
  store i32 %29, ptr %31, align 4, !tbaa !52
  %32 = load ptr, ptr %6, align 8, !tbaa !40
  %33 = load ptr, ptr %8, align 8, !tbaa !40
  %34 = getelementptr inbounds nuw %struct.Move, ptr %33, i32 0, i32 4
  store ptr %32, ptr %34, align 8, !tbaa !42
  %35 = load ptr, ptr %8, align 8, !tbaa !40
  store ptr %35, ptr %6, align 8, !tbaa !40
  %36 = load ptr, ptr %7, align 8, !tbaa !40
  %37 = getelementptr inbounds nuw %struct.Move, ptr %36, i32 0, i32 2
  %38 = load i32, ptr %37, align 8, !tbaa !53
  %39 = icmp eq i32 %38, 0
  br i1 %39, label %40, label %55

40:                                               ; preds = %21
  %41 = load ptr, ptr %8, align 8, !tbaa !40
  %42 = getelementptr inbounds nuw %struct.Move, ptr %41, i32 0, i32 2
  store i32 0, ptr %42, align 8, !tbaa !53
  %43 = load ptr, ptr %4, align 8, !tbaa !3
  %44 = load ptr, ptr %7, align 8, !tbaa !40
  %45 = getelementptr inbounds nuw %struct.Move, ptr %44, i32 0, i32 0
  %46 = load i32, ptr %45, align 8, !tbaa !51
  %47 = load ptr, ptr %7, align 8, !tbaa !40
  %48 = getelementptr inbounds nuw %struct.Move, ptr %47, i32 0, i32 1
  %49 = load i32, ptr %48, align 4, !tbaa !52
  %50 = call i32 @cuddZddSwapInPlace(ptr noundef %43, i32 noundef %46, i32 noundef %49)
  store i32 %50, ptr %9, align 4, !tbaa !8
  %51 = load i32, ptr %9, align 4, !tbaa !8
  %52 = icmp ne i32 %51, 0
  br i1 %52, label %54, label %53

53:                                               ; preds = %40
  br label %125

54:                                               ; preds = %40
  br label %115

55:                                               ; preds = %21
  %56 = load ptr, ptr %7, align 8, !tbaa !40
  %57 = getelementptr inbounds nuw %struct.Move, ptr %56, i32 0, i32 2
  %58 = load i32, ptr %57, align 8, !tbaa !53
  %59 = icmp eq i32 %58, 1
  br i1 %59, label %60, label %87

60:                                               ; preds = %55
  %61 = load ptr, ptr %8, align 8, !tbaa !40
  %62 = getelementptr inbounds nuw %struct.Move, ptr %61, i32 0, i32 2
  store i32 2, ptr %62, align 8, !tbaa !53
  %63 = load ptr, ptr %4, align 8, !tbaa !3
  %64 = load ptr, ptr %7, align 8, !tbaa !40
  %65 = getelementptr inbounds nuw %struct.Move, ptr %64, i32 0, i32 0
  %66 = load i32, ptr %65, align 8, !tbaa !51
  %67 = load ptr, ptr %7, align 8, !tbaa !40
  %68 = getelementptr inbounds nuw %struct.Move, ptr %67, i32 0, i32 1
  %69 = load i32, ptr %68, align 4, !tbaa !52
  %70 = call i32 @cuddZddLinearInPlace(ptr noundef %63, i32 noundef %66, i32 noundef %69)
  store i32 %70, ptr %9, align 4, !tbaa !8
  %71 = load i32, ptr %9, align 4, !tbaa !8
  %72 = icmp ne i32 %71, 0
  br i1 %72, label %74, label %73

73:                                               ; preds = %60
  br label %125

74:                                               ; preds = %60
  %75 = load ptr, ptr %4, align 8, !tbaa !3
  %76 = load ptr, ptr %7, align 8, !tbaa !40
  %77 = getelementptr inbounds nuw %struct.Move, ptr %76, i32 0, i32 0
  %78 = load i32, ptr %77, align 8, !tbaa !51
  %79 = load ptr, ptr %7, align 8, !tbaa !40
  %80 = getelementptr inbounds nuw %struct.Move, ptr %79, i32 0, i32 1
  %81 = load i32, ptr %80, align 4, !tbaa !52
  %82 = call i32 @cuddZddSwapInPlace(ptr noundef %75, i32 noundef %78, i32 noundef %81)
  store i32 %82, ptr %9, align 4, !tbaa !8
  %83 = load i32, ptr %9, align 4, !tbaa !8
  %84 = icmp ne i32 %83, 0
  br i1 %84, label %86, label %85

85:                                               ; preds = %74
  br label %125

86:                                               ; preds = %74
  br label %114

87:                                               ; preds = %55
  %88 = load ptr, ptr %8, align 8, !tbaa !40
  %89 = getelementptr inbounds nuw %struct.Move, ptr %88, i32 0, i32 2
  store i32 1, ptr %89, align 8, !tbaa !53
  %90 = load ptr, ptr %4, align 8, !tbaa !3
  %91 = load ptr, ptr %7, align 8, !tbaa !40
  %92 = getelementptr inbounds nuw %struct.Move, ptr %91, i32 0, i32 0
  %93 = load i32, ptr %92, align 8, !tbaa !51
  %94 = load ptr, ptr %7, align 8, !tbaa !40
  %95 = getelementptr inbounds nuw %struct.Move, ptr %94, i32 0, i32 1
  %96 = load i32, ptr %95, align 4, !tbaa !52
  %97 = call i32 @cuddZddSwapInPlace(ptr noundef %90, i32 noundef %93, i32 noundef %96)
  store i32 %97, ptr %9, align 4, !tbaa !8
  %98 = load i32, ptr %9, align 4, !tbaa !8
  %99 = icmp ne i32 %98, 0
  br i1 %99, label %101, label %100

100:                                              ; preds = %87
  br label %125

101:                                              ; preds = %87
  %102 = load ptr, ptr %4, align 8, !tbaa !3
  %103 = load ptr, ptr %7, align 8, !tbaa !40
  %104 = getelementptr inbounds nuw %struct.Move, ptr %103, i32 0, i32 0
  %105 = load i32, ptr %104, align 8, !tbaa !51
  %106 = load ptr, ptr %7, align 8, !tbaa !40
  %107 = getelementptr inbounds nuw %struct.Move, ptr %106, i32 0, i32 1
  %108 = load i32, ptr %107, align 4, !tbaa !52
  %109 = call i32 @cuddZddLinearInPlace(ptr noundef %102, i32 noundef %105, i32 noundef %108)
  store i32 %109, ptr %9, align 4, !tbaa !8
  %110 = load i32, ptr %9, align 4, !tbaa !8
  %111 = icmp ne i32 %110, 0
  br i1 %111, label %113, label %112

112:                                              ; preds = %101
  br label %125

113:                                              ; preds = %101
  br label %114

114:                                              ; preds = %113, %86
  br label %115

115:                                              ; preds = %114, %54
  %116 = load i32, ptr %9, align 4, !tbaa !8
  %117 = load ptr, ptr %8, align 8, !tbaa !40
  %118 = getelementptr inbounds nuw %struct.Move, ptr %117, i32 0, i32 3
  store i32 %116, ptr %118, align 4, !tbaa !55
  br label %119

119:                                              ; preds = %115
  %120 = load ptr, ptr %7, align 8, !tbaa !40
  %121 = getelementptr inbounds nuw %struct.Move, ptr %120, i32 0, i32 4
  %122 = load ptr, ptr %121, align 8, !tbaa !42
  store ptr %122, ptr %7, align 8, !tbaa !40
  br label %12, !llvm.loop !63

123:                                              ; preds = %12
  %124 = load ptr, ptr %6, align 8, !tbaa !40
  store ptr %124, ptr %3, align 8
  store i32 1, ptr %10, align 4
  br label %145

125:                                              ; preds = %112, %100, %85, %73, %53, %20
  br label %126

126:                                              ; preds = %129, %125
  %127 = load ptr, ptr %6, align 8, !tbaa !40
  %128 = icmp ne ptr %127, null
  br i1 %128, label %129, label %144

129:                                              ; preds = %126
  %130 = load ptr, ptr %6, align 8, !tbaa !40
  %131 = getelementptr inbounds nuw %struct.Move, ptr %130, i32 0, i32 4
  %132 = load ptr, ptr %131, align 8, !tbaa !42
  store ptr %132, ptr %7, align 8, !tbaa !40
  %133 = load ptr, ptr %6, align 8, !tbaa !40
  %134 = getelementptr inbounds nuw %struct.DdNode, ptr %133, i32 0, i32 1
  store i32 0, ptr %134, align 4, !tbaa !44
  %135 = load ptr, ptr %4, align 8, !tbaa !3
  %136 = getelementptr inbounds nuw %struct.DdManager, ptr %135, i32 0, i32 48
  %137 = load ptr, ptr %136, align 8, !tbaa !45
  %138 = load ptr, ptr %6, align 8, !tbaa !40
  %139 = getelementptr inbounds nuw %struct.DdNode, ptr %138, i32 0, i32 2
  store ptr %137, ptr %139, align 8, !tbaa !46
  %140 = load ptr, ptr %6, align 8, !tbaa !40
  %141 = load ptr, ptr %4, align 8, !tbaa !3
  %142 = getelementptr inbounds nuw %struct.DdManager, ptr %141, i32 0, i32 48
  store ptr %140, ptr %142, align 8, !tbaa !45
  %143 = load ptr, ptr %7, align 8, !tbaa !40
  store ptr %143, ptr %6, align 8, !tbaa !40
  br label %126, !llvm.loop !64

144:                                              ; preds = %126
  store ptr inttoptr (i64 -1 to ptr), ptr %3, align 8
  store i32 1, ptr %10, align 4
  br label %145

145:                                              ; preds = %144, %123
  call void @llvm.lifetime.end.p0(i64 4, ptr %9) #5
  call void @llvm.lifetime.end.p0(i64 8, ptr %8) #5
  call void @llvm.lifetime.end.p0(i64 8, ptr %7) #5
  call void @llvm.lifetime.end.p0(i64 8, ptr %6) #5
  %146 = load ptr, ptr %3, align 8
  ret ptr %146
}