; Function Attrs: nounwind uwtable
define internal fastcc ptr @cuddZddUndoMoves(ptr noundef %0, ptr noundef readonly %1) unnamed_addr #0 {
  %.not64 = icmp eq ptr %1, null
  br i1 %.not64, label %.loopexit, label %.lr.ph

.lr.ph:                                           ; preds = %2, %28
  %.04966 = phi ptr [ %31, %28 ], [ %1, %2 ]
  %.05065 = phi ptr [ %3, %28 ], [ null, %2 ]
  %3 = tail call ptr @cuddDynamicAllocNode(ptr noundef %0) #9
  %4 = icmp eq ptr %3, null
  br i1 %4, label %32, label %5

5:                                                ; preds = %.lr.ph
  %6 = load i32, ptr %.04966, align 8, !tbaa !43
  store i32 %6, ptr %3, align 8, !tbaa !43
  %7 = getelementptr inbounds nuw i8, ptr %.04966, i64 4
  %8 = load i32, ptr %7, align 4, !tbaa !44
  %9 = getelementptr inbounds nuw i8, ptr %3, i64 4
  store i32 %8, ptr %9, align 4, !tbaa !44
  %10 = getelementptr inbounds nuw i8, ptr %3, i64 16
  store ptr %.05065, ptr %10, align 8, !tbaa !40
  %11 = getelementptr inbounds nuw i8, ptr %.04966, i64 8
  %12 = load i32, ptr %11, align 8, !tbaa !42
  %13 = getelementptr inbounds nuw i8, ptr %3, i64 8
  switch i32 %12, label %22 [
    i32 0, label %14
    i32 1, label %16
  ]

14:                                               ; preds = %5
  store i32 0, ptr %13, align 8, !tbaa !42
  %15 = tail call i32 @cuddZddSwapInPlace(ptr noundef %0, i32 noundef %6, i32 noundef %8) #9
  %.not60 = icmp eq i32 %15, 0
  br i1 %.not60, label %.lr.ph69, label %28

16:                                               ; preds = %5
  store i32 2, ptr %13, align 8, !tbaa !42
  %17 = tail call fastcc i32 @cuddZddLinearInPlace(ptr noundef %0, i32 noundef %6, i32 noundef %8)
  %.not58 = icmp eq i32 %17, 0
  br i1 %.not58, label %.lr.ph69, label %18

18:                                               ; preds = %16
  %19 = load i32, ptr %.04966, align 8, !tbaa !43
  %20 = load i32, ptr %7, align 4, !tbaa !44
  %21 = tail call i32 @cuddZddSwapInPlace(ptr noundef %0, i32 noundef %19, i32 noundef %20) #9
  %.not59 = icmp eq i32 %21, 0
  br i1 %.not59, label %.lr.ph69, label %28

22:                                               ; preds = %5
  store i32 1, ptr %13, align 8, !tbaa !42
  %23 = tail call i32 @cuddZddSwapInPlace(ptr noundef %0, i32 noundef %6, i32 noundef %8) #9
  %.not56 = icmp eq i32 %23, 0
  br i1 %.not56, label %.lr.ph69, label %24

24:                                               ; preds = %22
  %25 = load i32, ptr %.04966, align 8, !tbaa !43
  %26 = load i32, ptr %7, align 4, !tbaa !44
  %27 = tail call fastcc i32 @cuddZddLinearInPlace(ptr noundef %0, i32 noundef %25, i32 noundef %26)
  %.not57 = icmp eq i32 %27, 0
  br i1 %.not57, label %.lr.ph69, label %28

28:                                               ; preds = %18, %24, %14
  %.0 = phi i32 [ %15, %14 ], [ %21, %18 ], [ %27, %24 ]
  %29 = getelementptr inbounds nuw i8, ptr %3, i64 12
  store i32 %.0, ptr %29, align 4, !tbaa !37
  %30 = getelementptr inbounds nuw i8, ptr %.04966, i64 16
  %31 = load ptr, ptr %30, align 8, !tbaa !40
  %.not = icmp eq ptr %31, null
  br i1 %.not, label %.loopexit, label %.lr.ph, !llvm.loop !58

32:                                               ; preds = %.lr.ph
  %.not6167 = icmp eq ptr %.05065, null
  br i1 %.not6167, label %.loopexit, label %.lr.ph69

.lr.ph69:                                         ; preds = %22, %24, %16, %18, %14, %32
  %.173 = phi ptr [ %.05065, %32 ], [ %3, %14 ], [ %3, %18 ], [ %3, %16 ], [ %3, %24 ], [ %3, %22 ]
  %33 = getelementptr inbounds nuw i8, ptr %0, i64 400
  %.promoted = load ptr, ptr %33, align 8, !tbaa !46
  br label %34

34:                                               ; preds = %.lr.ph69, %34
  %35 = phi ptr [ %.promoted, %.lr.ph69 ], [ %.268, %34 ]
  %.268 = phi ptr [ %.173, %.lr.ph69 ], [ %37, %34 ]
  %36 = getelementptr inbounds nuw i8, ptr %.268, i64 16
  %37 = load ptr, ptr %36, align 8, !tbaa !40
  %38 = getelementptr inbounds nuw i8, ptr %.268, i64 4
  store i32 0, ptr %38, align 4, !tbaa !47
  %39 = getelementptr inbounds nuw i8, ptr %.268, i64 8
  store ptr %35, ptr %39, align 8, !tbaa !48
  %.not61 = icmp eq ptr %37, null
  br i1 %.not61, label %..loopexit_crit_edge, label %34, !llvm.loop !59

..loopexit_crit_edge:                             ; preds = %34
  store ptr %.268, ptr %33, align 8, !tbaa !46
  br label %.loopexit

.loopexit:                                        ; preds = %28, %2, %32, %..loopexit_crit_edge
  %.048 = phi ptr [ inttoptr (i64 -1 to ptr), %..loopexit_crit_edge ], [ inttoptr (i64 -1 to ptr), %32 ], [ null, %2 ], [ %3, %28 ]
  ret ptr %.048
}